; Function Attrs: nounwind uwtable
define internal range(i32 0, 23) i32 @stats_mutexes_max_per_bg_thd_num_wait_ctl(ptr noundef %0, ptr readnone captures(none) %1, i64 %2, ptr noundef writeonly captures(address_is_null) %3, ptr noundef captures(address_is_null) %4, ptr noundef readnone captures(address_is_null) %5, i64 noundef %6) #0 {
  %8 = alloca i64, align 8
  call void @llvm.lifetime.start.p0(i64 8, ptr nonnull %8)
  %9 = tail call i32 @pthread_mutex_trylock(ptr noundef nonnull getelementptr inbounds nuw (i8, ptr @ctl_mtx, i64 72)) #15
  %.not.i = icmp eq i32 %9, 0
  br i1 %.not.i, label %malloc_mutex_trylock_final.exit.i, label %10

malloc_mutex_trylock_final.exit.i:                ; preds = %7
  store atomic i8 1, ptr getelementptr inbounds nuw (i8, ptr @ctl_mtx, i64 64) monotonic, align 8
  br label %11

10:                                               ; preds = %7
  tail call void @je_malloc_mutex_lock_slow(ptr noundef nonnull @ctl_mtx) #15
  br label %11

11:                                               ; preds = %10, %malloc_mutex_trylock_final.exit.i
  %12 = load i64, ptr getelementptr inbounds nuw (i8, ptr @ctl_mtx, i64 56), align 8, !tbaa !17
  %13 = add i64 %12, 1
  store i64 %13, ptr getelementptr inbounds nuw (i8, ptr @ctl_mtx, i64 56), align 8, !tbaa !17
  %14 = load ptr, ptr getelementptr inbounds nuw (i8, ptr @ctl_mtx, i64 48), align 8, !tbaa !23
  %.not.i.i = icmp eq ptr %14, %0
  br i1 %.not.i.i, label %malloc_mutex_lock.exit, label %15

15:                                               ; preds = %11
  store ptr %0, ptr getelementptr inbounds nuw (i8, ptr @ctl_mtx, i64 48), align 8, !tbaa !23
  %16 = load i64, ptr getelementptr inbounds nuw (i8, ptr @ctl_mtx, i64 40), align 8, !tbaa !24
  %17 = add i64 %16, 1
  store i64 %17, ptr getelementptr inbounds nuw (i8, ptr @ctl_mtx, i64 40), align 8, !tbaa !24
  br label %malloc_mutex_lock.exit

malloc_mutex_lock.exit:                           ; preds = %11, %15
  %18 = icmp ne ptr %5, null
  %19 = icmp ne i64 %6, 0
  %or.cond = or i1 %18, %19
  br i1 %or.cond, label %30, label %20

20:                                               ; preds = %malloc_mutex_lock.exit
  %21 = load ptr, ptr @ctl_stats, align 8, !tbaa !27
  %22 = getelementptr inbounds nuw i8, ptr %21, i64 240
  %23 = load i64, ptr %22, align 8, !tbaa !116
  store i64 %23, ptr %8, align 8, !tbaa !4
  %24 = icmp ne ptr %3, null
  %25 = icmp ne ptr %4, null
  %or.cond3 = and i1 %24, %25
  br i1 %or.cond3, label %26, label %30

26:                                               ; preds = %20
  %27 = load i64, ptr %4, align 8, !tbaa !4
  %.not = icmp eq i64 %27, 8
  br i1 %.not, label %29, label %28

28:                                               ; preds = %26
  %spec.select = tail call i64 @llvm.umin.i64(i64 %27, i64 8)
  call void @llvm.memcpy.p0.p0.i64(ptr nonnull align 1 %3, ptr nonnull align 8 %8, i64 %spec.select, i1 false)
  store i64 %spec.select, ptr %4, align 8, !tbaa !4
  br label %30

29:                                               ; preds = %26
  store i64 %23, ptr %3, align 8, !tbaa !4
  br label %30

30:                                               ; preds = %20, %29, %malloc_mutex_lock.exit, %28
  %.020 = phi i32 [ 22, %28 ], [ 1, %malloc_mutex_lock.exit ], [ 0, %29 ], [ 0, %20 ]
  store atomic i8 0, ptr getelementptr inbounds nuw (i8, ptr @ctl_mtx, i64 64) monotonic, align 8
  %31 = tail call i32 @pthread_mutex_unlock(ptr noundef nonnull getelementptr inbounds nuw (i8, ptr @ctl_mtx, i64 72)) #15
  call void @llvm.lifetime.end.p0(i64 8, ptr nonnull %8)
  ret i32 %.020
}